target datalayout = "e-m:e-p270:32:32-p271:32:32-p272:64:64-i64:64-i128:128-f80:128-n8:16:32:64-S128"
target triple = "x86_64-pc-linux-gnu"

%"class.icu_77::EmojiProps" = type { ptr, ptr, [6 x ptr] }
%struct.USetAdder = type { ptr, ptr, ptr, ptr, ptr, ptr }

; Function Attrs: mustprogress uwtable
define void @_ZNK6icu_7710EmojiProps17addPropertyStartsEPK9USetAdderR10UErrorCode(ptr noundef nonnull align 8 dereferenceable(64) %0, ptr noundef %1, ptr noundef nonnull align 4 dereferenceable(4) %2) #3 align 2 {
  %4 = alloca ptr, align 8
  %5 = alloca ptr, align 8
  %6 = alloca ptr, align 8
  %7 = alloca i32, align 4
  %8 = alloca i32, align 4
  %9 = alloca i32, align 4
  store ptr %0, ptr %4, align 8, !tbaa !3
  store ptr %1, ptr %5, align 8, !tbaa !40
  store ptr %2, ptr %6, align 8, !tbaa !13
  %10 = load ptr, ptr %4, align 8
  call void @llvm.lifetime.start.p0(i64 4, ptr %7) #11
  store i32 0, ptr %7, align 4, !tbaa !37
  call void @llvm.lifetime.start.p0(i64 4, ptr %8) #11
  call void @llvm.lifetime.start.p0(i64 4, ptr %9) #11
  br label %11

11:                                               ; preds = %17, %3
  %12 = getelementptr inbounds nuw %"class.icu_77::EmojiProps", ptr %10, i32 0, i32 1
  %13 = load ptr, ptr %12, align 8, !tbaa !12
  %14 = load i32, ptr %7, align 4, !tbaa !37
  %15 = call i32 @ucptrie_getRange_77(ptr noundef %13, i32 noundef %14, i32 noundef 0, i32 noundef 0, ptr noundef null, ptr noundef null, ptr noundef %9)
  store i32 %15, ptr %8, align 4, !tbaa !37
  %16 = icmp sge i32 %15, 0
  br i1 %16, label %17, label %27

17:                                               ; preds = %11
  %18 = load ptr, ptr %5, align 8, !tbaa !40
  %19 = getelementptr inbounds nuw %struct.USetAdder, ptr %18, i32 0, i32 1
  %20 = load ptr, ptr %19, align 8, !tbaa !42
  %21 = load ptr, ptr %5, align 8, !tbaa !40
  %22 = getelementptr inbounds nuw %struct.USetAdder, ptr %21, i32 0, i32 0
  %23 = load ptr, ptr %22, align 8, !tbaa !45
  %24 = load i32, ptr %7, align 4, !tbaa !37
  call void %20(ptr noundef %23, i32 noundef %24)
  %25 = load i32, ptr %8, align 4, !tbaa !37
  %26 = add nsw i32 %25, 1
  store i32 %26, ptr %7, align 4, !tbaa !37
  br label %11, !llvm.loop !46

27:                                               ; preds = %11
  call void @llvm.lifetime.end.p0(i64 4, ptr %9) #11
  call void @llvm.lifetime.end.p0(i64 4, ptr %8) #11
  call void @llvm.lifetime.end.p0(i64 4, ptr %7) #11
  ret void
}