; Function Attrs: mustprogress uwtable
define void @_ZNK6icu_7710EmojiProps17addPropertyStartsEPK9USetAdderR10UErrorCode(ptr noundef nonnull readonly align 8 captures(none) dereferenceable(64) %0, ptr noundef readonly captures(none) %1, ptr noundef nonnull readnone align 4 captures(none) dereferenceable(4) %2) local_unnamed_addr #4 align 2 {
  %4 = alloca i32, align 4
  call void @llvm.lifetime.start.p0(i64 4, ptr nonnull %4) #10
  %5 = getelementptr inbounds nuw i8, ptr %0, i64 8
  %6 = load ptr, ptr %5, align 8, !tbaa !10
  %7 = call i32 @ucptrie_getRange_77(ptr noundef %6, i32 noundef 0, i32 noundef 0, i32 noundef 0, ptr noundef null, ptr noundef null, ptr noundef nonnull %4)
  %8 = icmp sgt i32 %7, -1
  br i1 %8, label %.lr.ph, label %._crit_edge

.lr.ph:                                           ; preds = %3
  %9 = getelementptr inbounds nuw i8, ptr %1, i64 8
  br label %10

10:                                               ; preds = %.lr.ph, %10
  %11 = phi i32 [ %7, %.lr.ph ], [ %16, %10 ]
  %.06 = phi i32 [ 0, %.lr.ph ], [ %14, %10 ]
  %12 = load ptr, ptr %9, align 8, !tbaa !28
  %13 = load ptr, ptr %1, align 8, !tbaa !31
  call void %12(ptr noundef %13, i32 noundef %.06)
  %14 = add nuw nsw i32 %11, 1
  %15 = load ptr, ptr %5, align 8, !tbaa !10
  %16 = call i32 @ucptrie_getRange_77(ptr noundef %15, i32 noundef %14, i32 noundef 0, i32 noundef 0, ptr noundef null, ptr noundef null, ptr noundef nonnull %4)
  %17 = icmp sgt i32 %16, -1
  br i1 %17, label %10, label %._crit_edge, !llvm.loop !32

._crit_edge:                                      ; preds = %10, %3
  call void @llvm.lifetime.end.p0(i64 4, ptr nonnull %4) #10
  ret void
}